
firmware.exe:     file format elf32-bigmips


Disassembly of section .text:

00000000 <__start>:
   0:	10000003 	b	10 <__start+0x10>
   4:	00000000 	nop
   8:	10000012 	b	54 <__start+0x54>
   c:	00000000 	nop
  10:	3c1c0000 	lui	gp,0x0
  14:	379c2000 	ori	gp,gp,0x2000
  18:	3c040000 	lui	a0,0x0
  1c:	34842000 	ori	a0,a0,0x2000
  20:	3c050000 	lui	a1,0x0
  24:	34a52004 	ori	a1,a1,0x2004
  28:	3c1d0000 	lui	sp,0x0
  2c:	37bd3ff8 	ori	sp,sp,0x3ff8
  30:	ac800000 	sw	zero,0(a0)
  34:	0085182a 	slt	v1,a0,a1
  38:	1460fffd 	bnez	v1,30 <__start+0x30>
  3c:	24840004 	addiu	a0,a0,4
  40:	34080001 	li	t0,0x1
  44:	40886000 	mtc0	t0,c0_sr
  48:	0c000088 	jal	220 <main>
  4c:	00000000 	nop
  50:	08000014 	j	50 <__start+0x50>
  54:	27bdff90 	addiu	sp,sp,-112
  58:	afa10000 	sw	at,0(sp)
  5c:	afa20004 	sw	v0,4(sp)
  60:	afa30010 	sw	v1,16(sp)
  64:	afa40014 	sw	a0,20(sp)
  68:	afa50018 	sw	a1,24(sp)
  6c:	afa6001c 	sw	a2,28(sp)
  70:	afa70020 	sw	a3,32(sp)
  74:	afa80024 	sw	t0,36(sp)
  78:	afa90028 	sw	t1,40(sp)
  7c:	afaa002c 	sw	t2,44(sp)
  80:	afab0030 	sw	t3,48(sp)
  84:	afac0034 	sw	t4,52(sp)
  88:	afad003a 	sw	t5,58(sp)
  8c:	afae003c 	sw	t6,60(sp)
  90:	afaf0040 	sw	t7,64(sp)
  94:	afb00044 	sw	s0,68(sp)
  98:	afb10048 	sw	s1,72(sp)
  9c:	afb2004c 	sw	s2,76(sp)
  a0:	afb30050 	sw	s3,80(sp)
  a4:	afb40054 	sw	s4,84(sp)
  a8:	afb50058 	sw	s5,88(sp)
  ac:	afb6005c 	sw	s6,92(sp)
  b0:	afb70060 	sw	s7,96(sp)
  b4:	afb80064 	sw	t8,100(sp)
  b8:	afb90068 	sw	t9,104(sp)
  bc:	afbf006c 	sw	ra,108(sp)
  c0:	0c000051 	jal	144 <YF32_ISR>
  c4:	00000000 	nop
  c8:	8fa10000 	lw	at,0(sp)
  cc:	8fa20004 	lw	v0,4(sp)
  d0:	8fa30010 	lw	v1,16(sp)
  d4:	8fa40014 	lw	a0,20(sp)
  d8:	8fa50018 	lw	a1,24(sp)
  dc:	8fa6001c 	lw	a2,28(sp)
  e0:	8fa70020 	lw	a3,32(sp)
  e4:	8fa80024 	lw	t0,36(sp)
  e8:	8fa90028 	lw	t1,40(sp)
  ec:	8faa002c 	lw	t2,44(sp)
  f0:	8fab0030 	lw	t3,48(sp)
  f4:	8fac0034 	lw	t4,52(sp)
  f8:	8fad003a 	lw	t5,58(sp)
  fc:	8fae003c 	lw	t6,60(sp)
 100:	8faf0040 	lw	t7,64(sp)
 104:	8fb00044 	lw	s0,68(sp)
 108:	8fb10048 	lw	s1,72(sp)
 10c:	8fb2004c 	lw	s2,76(sp)
 110:	8fb30050 	lw	s3,80(sp)
 114:	8fb40054 	lw	s4,84(sp)
 118:	8fb50058 	lw	s5,88(sp)
 11c:	8fb6005c 	lw	s6,92(sp)
 120:	8fb70060 	lw	s7,96(sp)
 124:	8fb80064 	lw	t8,100(sp)
 128:	8fb90068 	lw	t9,104(sp)
 12c:	8fbf006c 	lw	ra,108(sp)
 130:	27bd0070 	addiu	sp,sp,112
 134:	341a0001 	li	k0,0x1
 138:	401b7000 	mfc0	k1,c0_epc
 13c:	03600008 	jr	k1
 140:	409a6000 	mtc0	k0,c0_sr

00000144 <YF32_ISR>:
 144:	03e00008 	jr	ra
 148:	00000000 	nop

0000014c <catvars>:
 14c:	30c9ffff 	andi	t1,a2,0xffff
 150:	30e7ffff 	andi	a3,a3,0xffff
 154:	00e91021 	addu	v0,a3,t1
 158:	304affff 	andi	t2,v0,0xffff
 15c:	3c0bcccc 	lui	t3,0xcccc
 160:	35620107 	ori	v0,t3,0x107
 164:	35630115 	ori	v1,t3,0x115
 168:	35660103 	ori	a2,t3,0x103
 16c:	2d480033 	sltiu	t0,t2,51
 170:	ac490000 	sw	t1,0(v0)
 174:	27bdffc0 	addiu	sp,sp,-64
 178:	ac670000 	sw	a3,0(v1)
 17c:	acca0000 	sw	t2,0(a2)
 180:	11000023 	beqz	t0,210 <catvars+0xc4>
 184:	00803821 	move	a3,a0
 188:	35620145 	ori	v0,t3,0x145
 18c:	ac5d0000 	sw	sp,0(v0)
 190:	03a04021 	move	t0,sp
 194:	1120000a 	beqz	t1,1c0 <catvars+0x74>
 198:	af800000 	sw	zero,0(gp)
 19c:	00003021 	move	a2,zero
 1a0:	00e61021 	addu	v0,a3,a2
 1a4:	90440000 	lbu	a0,0(v0)
 1a8:	03a61821 	addu	v1,sp,a2
 1ac:	24c60001 	addiu	a2,a2,1
 1b0:	00c9102b 	sltu	v0,a2,t1
 1b4:	a0640000 	sb	a0,0(v1)
 1b8:	1440fff9 	bnez	v0,1a0 <catvars+0x54>
 1bc:	af860000 	sw	a2,0(gp)
 1c0:	3c02cccc 	lui	v0,0xcccc
 1c4:	34420156 	ori	v0,v0,0x156
 1c8:	ac480000 	sw	t0,0(v0)
 1cc:	03a93021 	addu	a2,sp,t1
 1d0:	af800000 	sw	zero,0(gp)
 1d4:	00002021 	move	a0,zero
 1d8:	24070258 	li	a3,600
 1dc:	00a41021 	addu	v0,a1,a0
 1e0:	90430000 	lbu	v1,0(v0)
 1e4:	24840001 	addiu	a0,a0,1
 1e8:	a0c30000 	sb	v1,0(a2)
 1ec:	af840000 	sw	a0,0(gp)
 1f0:	1487fffa 	bne	a0,a3,1dc <catvars+0x90>
 1f4:	24c60001 	addiu	a2,a2,1
 1f8:	3c02cccc 	lui	v0,0xcccc
 1fc:	34420172 	ori	v0,v0,0x172
 200:	ac480000 	sw	t0,0(v0)
 204:	00001021 	move	v0,zero
 208:	03e00008 	jr	ra
 20c:	27bd0040 	addiu	sp,sp,64
 210:	35620191 	ori	v0,t3,0x191
 214:	ac4a0000 	sw	t2,0(v0)
 218:	08000082 	j	208 <catvars+0xbc>
 21c:	2402ffff 	li	v0,-1

00000220 <main>:
 220:	27bdfde8 	addiu	sp,sp,-536
 224:	3c02cccc 	lui	v0,0xcccc
 228:	afb101f4 	sw	s1,500(sp)
 22c:	3c030000 	lui	v1,0x0
 230:	3c110000 	lui	s1,0x0
 234:	3c040000 	lui	a0,0x0
 238:	afbf0214 	sw	ra,532(sp)
 23c:	afbe0210 	sw	s8,528(sp)
 240:	afb7020c 	sw	s7,524(sp)
 244:	afb60208 	sw	s6,520(sp)
 248:	afb50204 	sw	s5,516(sp)
 24c:	afb40200 	sw	s4,512(sp)
 250:	afb301fc 	sw	s3,508(sp)
 254:	afb201f8 	sw	s2,504(sp)
 258:	afb001f0 	sw	s0,496(sp)
 25c:	247203bc 	addiu	s2,v1,956
 260:	248d054c 	addiu	t5,a0,1356
 264:	34530172 	ori	s3,v0,0x172
 268:	262c0558 	addiu	t4,s1,1368
 26c:	27ab0054 	addiu	t3,sp,84
 270:	27a90018 	addiu	t1,sp,24
 274:	27be0008 	addiu	s8,sp,8
 278:	27bf0020 	addiu	ra,sp,32
 27c:	3c0e1000 	lui	t6,0x1000
 280:	3c190004 	lui	t9,0x4
 284:	24140007 	li	s4,7
 288:	3415fffe 	li	s5,0xfffe
 28c:	34560103 	ori	s6,v0,0x103
 290:	34570145 	ori	s7,v0,0x145
 294:	34500156 	ori	s0,v0,0x156
 298:	240a0258 	li	t2,600
 29c:	3c0f2000 	lui	t7,0x2000
 2a0:	24180001 	li	t8,1
 2a4:	8dc20000 	lw	v0,0(t6)
 2a8:	8d86000c 	lw	a2,12(t4)
 2ac:	8d870010 	lw	a3,16(t4)
 2b0:	8e230558 	lw	v1,1368(s1)
 2b4:	8d840004 	lw	a0,4(t4)
 2b8:	8d850008 	lw	a1,8(t4)
 2bc:	95880014 	lhu	t0,20(t4)
 2c0:	00591025 	or	v0,v0,t9
 2c4:	adc20000 	sw	v0,0(t6)
 2c8:	afa6000c 	sw	a2,12(sp)
 2cc:	afa70010 	sw	a3,16(sp)
 2d0:	afa30000 	sw	v1,0(sp)
 2d4:	afa40004 	sw	a0,4(sp)
 2d8:	afa50008 	sw	a1,8(sp)
 2dc:	a7a80014 	sh	t0,20(sp)
 2e0:	02403021 	move	a2,s2
 2e4:	01603821 	move	a3,t3
 2e8:	8cc20000 	lw	v0,0(a2)
 2ec:	8cc30004 	lw	v1,4(a2)
 2f0:	8cc40008 	lw	a0,8(a2)
 2f4:	8cc5000c 	lw	a1,12(a2)
 2f8:	24c60010 	addiu	a2,a2,16
 2fc:	ace20000 	sw	v0,0(a3)
 300:	ace30004 	sw	v1,4(a3)
 304:	ace40008 	sw	a0,8(a3)
 308:	ace5000c 	sw	a1,12(a3)
 30c:	14cdfff6 	bne	a2,t5,2e8 <main+0xc8>
 310:	24e70010 	addiu	a3,a3,16
 314:	95a20008 	lhu	v0,8(t5)
 318:	8da30000 	lw	v1,0(t5)
 31c:	8da40004 	lw	a0,4(t5)
 320:	a4e20008 	sh	v0,8(a3)
 324:	3c02cccc 	lui	v0,0xcccc
 328:	ace30000 	sw	v1,0(a3)
 32c:	34420567 	ori	v0,v0,0x567
 330:	3c03cccc 	lui	v1,0xcccc
 334:	ace40004 	sw	a0,4(a3)
 338:	34630107 	ori	v1,v1,0x107
 33c:	ac540000 	sw	s4,0(v0)
 340:	24020009 	li	v0,9
 344:	ac620000 	sw	v0,0(v1)
 348:	3c03cccc 	lui	v1,0xcccc
 34c:	34630115 	ori	v1,v1,0x115
 350:	ac750000 	sw	s5,0(v1)
 354:	aed40000 	sw	s4,0(s6)
 358:	aee90000 	sw	t1,0(s7)
 35c:	8fa20000 	lw	v0,0(sp)
 360:	24050001 	li	a1,1
 364:	ad220000 	sw	v0,0(t1)
 368:	8fa30004 	lw	v1,4(sp)
 36c:	03c02021 	move	a0,s8
 370:	ad230004 	sw	v1,4(t1)
 374:	03e01821 	move	v1,ra
 378:	90820000 	lbu	v0,0(a0)
 37c:	24a5ffff 	addiu	a1,a1,-1
 380:	a0620000 	sb	v0,0(v1)
 384:	24840001 	addiu	a0,a0,1
 388:	14a0fffb 	bnez	a1,378 <main+0x158>
 38c:	24630001 	addiu	v1,v1,1
 390:	ae090000 	sw	t1,0(s0)
 394:	01651021 	addu	v0,t3,a1
 398:	90440000 	lbu	a0,0(v0)
 39c:	01251821 	addu	v1,t1,a1
 3a0:	24a50001 	addiu	a1,a1,1
 3a4:	14aafffb 	bne	a1,t2,394 <main+0x174>
 3a8:	a0640009 	sb	a0,9(v1)
 3ac:	ae690000 	sw	t1,0(s3)
 3b0:	adf80000 	sw	t8,0(t7)
 3b4:	080000a9 	j	2a4 <main+0x84>
 3b8:	00000000 	nop

Disassembly of section .rodata.str1.4:

000003bc <.rodata.str1.4>:
 3bc:	61616161 	0x61616161
 3c0:	61616161 	0x61616161
 3c4:	61616161 	0x61616161
 3c8:	61616161 	0x61616161
 3cc:	61616161 	0x61616161
 3d0:	61616161 	0x61616161
 3d4:	61616161 	0x61616161
 3d8:	61616161 	0x61616161
 3dc:	61616161 	0x61616161
 3e0:	61616161 	0x61616161
 3e4:	61616161 	0x61616161
 3e8:	61616161 	0x61616161
 3ec:	61616161 	0x61616161
 3f0:	61616161 	0x61616161
 3f4:	61616161 	0x61616161
 3f8:	61616161 	0x61616161
 3fc:	61616161 	0x61616161
 400:	61616161 	0x61616161
 404:	61616161 	0x61616161
 408:	61616161 	0x61616161
 40c:	61616161 	0x61616161
 410:	61616161 	0x61616161
 414:	61616161 	0x61616161
 418:	61616161 	0x61616161
 41c:	61616161 	0x61616161
 420:	61616161 	0x61616161
 424:	61616161 	0x61616161
 428:	61616161 	0x61616161
 42c:	61616161 	0x61616161
 430:	61616161 	0x61616161
 434:	61616161 	0x61616161
 438:	61616161 	0x61616161
 43c:	61616161 	0x61616161
 440:	61616161 	0x61616161
 444:	61616161 	0x61616161
 448:	61616161 	0x61616161
 44c:	61616161 	0x61616161
 450:	61616262 	0x61616262
 454:	62626262 	0x62626262
 458:	62626262 	0x62626262
 45c:	62626262 	0x62626262
 460:	62626262 	0x62626262
 464:	62626262 	0x62626262
 468:	62626262 	0x62626262
 46c:	62626262 	0x62626262
 470:	62626262 	0x62626262
 474:	62626262 	0x62626262
 478:	62626262 	0x62626262
 47c:	62626262 	0x62626262
 480:	62626262 	0x62626262
 484:	62626262 	0x62626262
 488:	62626262 	0x62626262
 48c:	62626262 	0x62626262
 490:	62626262 	0x62626262
 494:	62626262 	0x62626262
 498:	62626262 	0x62626262
 49c:	62626262 	0x62626262
 4a0:	62626262 	0x62626262
 4a4:	62626262 	0x62626262
 4a8:	62626262 	0x62626262
 4ac:	62626262 	0x62626262
 4b0:	62626262 	0x62626262
 4b4:	62626262 	0x62626262
 4b8:	62626262 	0x62626262
 4bc:	62626262 	0x62626262
 4c0:	62626262 	0x62626262
 4c4:	62626262 	0x62626262
 4c8:	62626262 	0x62626262
 4cc:	62626262 	0x62626262
 4d0:	62626262 	0x62626262
 4d4:	62626262 	0x62626262
 4d8:	62626262 	0x62626262
 4dc:	62626262 	0x62626262
 4e0:	62626262 	0x62626262
 4e4:	62626262 	0x62626262
 4e8:	62626262 	0x62626262
 4ec:	62626262 	0x62626262
 4f0:	62626262 	0x62626262
 4f4:	62626262 	0x62626262
 4f8:	62626262 	0x62626262
 4fc:	62626262 	0x62626262
 500:	62626262 	0x62626262
 504:	62626262 	0x62626262
 508:	62626262 	0x62626262
 50c:	62626262 	0x62626262
 510:	62626262 	0x62626262
 514:	62626262 	0x62626262
 518:	62626262 	0x62626262
 51c:	62626262 	0x62626262
 520:	62626262 	0x62626262
 524:	62626262 	0x62626262
 528:	62626262 	0x62626262
 52c:	62626262 	0x62626262
 530:	62626262 	0x62626262
 534:	62626262 	0x62626262
 538:	62626262 	0x62626262
 53c:	62626262 	0x62626262
 540:	62626262 	0x62626262
 544:	62626262 	0x62626262
 548:	62626262 	0x62626262
 54c:	62626262 	0x62626262
 550:	62626262 	0x62626262
 554:	62000000 	0x62000000
 558:	74726961 	jalx	1c9a584 <_sp+0x1c9658c>
 55c:	706f756c 	0x706f756c
 560:	616b6961 	0x616b6961
 564:	6b617468 	0x6b617468
 568:	6f6e7461 	0x6f6e7461
 56c:	6e000000 	0x6e000000

Disassembly of section .pdr:

00000570 <__pdr_start>:
	...
 590:	00000144 	0x144
	...
 5a8:	0000001d 	0x1d
 5ac:	0000001f 	0x1f
 5b0:	0000014c 	syscall	0x5
	...
 5c4:	00000040 	sll	zero,zero,0x1
 5c8:	0000001d 	0x1d
 5cc:	0000001f 	0x1f
 5d0:	00000220 	0x220
 5d4:	c0ff0000 	lwc0	$31,0(a3)
 5d8:	fffffffc 	0xfffffffc
	...
 5e4:	00000218 	0x218
 5e8:	0000001d 	0x1d
 5ec:	0000001f 	0x1f

Disassembly of section .comment:

000005f0 <__comment_start>:
 5f0:	00474343 	0x474343
 5f4:	3a202847 	xori	zero,s1,0x2847
 5f8:	4e552920 	c3	0x552920
 5fc:	342e332e 	ori	t6,at,0x332e
 600:	32000047 	andi	zero,s0,0x47
 604:	43433a20 	c0	0x1433a20
 608:	28474e55 	slti	a3,v0,20053
 60c:	2920342e 	slti	zero,t1,13358
 610:	332e3200 	andi	t6,t9,0x3200

Disassembly of section .sbss:

00002000 <__sbss_start>:
    2000:	00000000 	nop

Disassembly of section .reginfo:

00000000 <.reginfo>:
   0:	bffffffe 	0xbffffffe
	...
  14:	00002000 	sll	a0,zero,0x0

Disassembly of section .gnu.attributes:

00000000 <.gnu.attributes>:
   0:	41000000 	bc0f	4 <__start+0x4>
   4:	0f676e75 	jal	d9db9d4 <_sp+0xd9d79dc>
   8:	00010000 	sll	zero,at,0x0
   c:	00070401 	0x70401
